target datalayout = "e-m:e-p270:32:32-p271:32:32-p272:64:64-i64:64-i128:128-f80:128-n8:16:32:64-S128"
target triple = "x86_64-pc-linux-gnu"

; Function Attrs: nounwind uwtable
define i32 @stbhw__weighted(i32 noundef %0, ptr noundef %1) #0 {
  %3 = alloca i32, align 4
  %4 = alloca ptr, align 8
  %5 = alloca i32, align 4
  %6 = alloca i32, align 4
  %7 = alloca i32, align 4
  store i32 %0, ptr %3, align 4, !tbaa !10
  store ptr %1, ptr %4, align 8, !tbaa !35
  call void @llvm.lifetime.start.p0(i64 4, ptr %5) #6
  call void @llvm.lifetime.start.p0(i64 4, ptr %6) #6
  call void @llvm.lifetime.start.p0(i64 4, ptr %7) #6
  store i32 0, ptr %6, align 4, !tbaa !10
  store i32 0, ptr %5, align 4, !tbaa !10
  br label %8

8:                                                ; preds = %20, %2
  %9 = load i32, ptr %5, align 4, !tbaa !10
  %10 = load i32, ptr %3, align 4, !tbaa !10
  %11 = icmp slt i32 %9, %10
  br i1 %11, label %12, label %23

12:                                               ; preds = %8
  %13 = load ptr, ptr %4, align 8, !tbaa !35
  %14 = load i32, ptr %5, align 4, !tbaa !10
  %15 = sext i32 %14 to i64
  %16 = getelementptr inbounds i32, ptr %13, i64 %15
  %17 = load i32, ptr %16, align 4, !tbaa !10
  %18 = load i32, ptr %6, align 4, !tbaa !10
  %19 = add nsw i32 %18, %17
  store i32 %19, ptr %6, align 4, !tbaa !10
  br label %20

20:                                               ; preds = %12
  %21 = load i32, ptr %5, align 4, !tbaa !10
  %22 = add nsw i32 %21, 1
  store i32 %22, ptr %5, align 4, !tbaa !10
  br label %8, !llvm.loop !74

23:                                               ; preds = %8
  %24 = call i32 @rand() #6
  %25 = ashr i32 %24, 4
  %26 = load i32, ptr %6, align 4, !tbaa !10
  %27 = srem i32 %25, %26
  store i32 %27, ptr %7, align 4, !tbaa !10
  store i32 0, ptr %6, align 4, !tbaa !10
  store i32 0, ptr %5, align 4, !tbaa !10
  br label %28

28:                                               ; preds = %45, %23
  %29 = load i32, ptr %5, align 4, !tbaa !10
  %30 = load i32, ptr %3, align 4, !tbaa !10
  %31 = icmp slt i32 %29, %30
  br i1 %31, label %32, label %48

32:                                               ; preds = %28
  %33 = load ptr, ptr %4, align 8, !tbaa !35
  %34 = load i32, ptr %5, align 4, !tbaa !10
  %35 = sext i32 %34 to i64
  %36 = getelementptr inbounds i32, ptr %33, i64 %35
  %37 = load i32, ptr %36, align 4, !tbaa !10
  %38 = load i32, ptr %6, align 4, !tbaa !10
  %39 = add nsw i32 %38, %37
  store i32 %39, ptr %6, align 4, !tbaa !10
  %40 = load i32, ptr %7, align 4, !tbaa !10
  %41 = load i32, ptr %6, align 4, !tbaa !10
  %42 = icmp slt i32 %40, %41
  br i1 %42, label %43, label %44

43:                                               ; preds = %32
  br label %48

44:                                               ; preds = %32
  br label %45

45:                                               ; preds = %44
  %46 = load i32, ptr %5, align 4, !tbaa !10
  %47 = add nsw i32 %46, 1
  store i32 %47, ptr %5, align 4, !tbaa !10
  br label %28, !llvm.loop !75

48:                                               ; preds = %43, %28
  %49 = load i32, ptr %5, align 4, !tbaa !10
  call void @llvm.lifetime.end.p0(i64 4, ptr %7) #6
  call void @llvm.lifetime.end.p0(i64 4, ptr %6) #6
  call void @llvm.lifetime.end.p0(i64 4, ptr %5) #6
  ret i32 %49
}