; Function Attrs: nounwind uwtable
define i32 @stbhw__weighted(i32 noundef %0, ptr noundef readonly captures(none) %1) local_unnamed_addr #2 {
  %3 = icmp sgt i32 %0, 0
  br i1 %3, label %.lr.ph.preheader, label %._crit_edge.thread

._crit_edge.thread:                               ; preds = %2
  %4 = tail call i32 @rand() #15
  br label %._crit_edge25

.lr.ph.preheader:                                 ; preds = %2
  %wide.trip.count = zext nneg i32 %0 to i64
  br label %.lr.ph

.lr.ph:                                           ; preds = %.lr.ph.preheader, %.lr.ph
  %indvars.iv = phi i64 [ 0, %.lr.ph.preheader ], [ %indvars.iv.next, %.lr.ph ]
  %.01519 = phi i32 [ 0, %.lr.ph.preheader ], [ %7, %.lr.ph ]
  %5 = getelementptr inbounds nuw i32, ptr %1, i64 %indvars.iv
  %6 = load i32, ptr %5, align 4, !tbaa !32
  %7 = add nsw i32 %6, %.01519
  %indvars.iv.next = add nuw nsw i64 %indvars.iv, 1
  %exitcond.not = icmp eq i64 %indvars.iv.next, %wide.trip.count
  br i1 %exitcond.not, label %._crit_edge, label %.lr.ph, !llvm.loop !71

._crit_edge:                                      ; preds = %.lr.ph
  %8 = tail call i32 @rand() #15
  %9 = ashr i32 %8, 4
  %10 = srem i32 %9, %7
  %wide.trip.count33 = zext nneg i32 %0 to i64
  br label %.lr.ph24

.lr.ph24:                                         ; preds = %._crit_edge, %15
  %indvars.iv30 = phi i64 [ 0, %._crit_edge ], [ %indvars.iv.next31, %15 ]
  %.11621 = phi i32 [ 0, %._crit_edge ], [ %13, %15 ]
  %11 = getelementptr inbounds nuw i32, ptr %1, i64 %indvars.iv30
  %12 = load i32, ptr %11, align 4, !tbaa !32
  %13 = add nsw i32 %12, %.11621
  %14 = icmp slt i32 %10, %13
  br i1 %14, label %._crit_edge25.loopexit.split.loop.exit, label %15

15:                                               ; preds = %.lr.ph24
  %indvars.iv.next31 = add nuw nsw i64 %indvars.iv30, 1
  %exitcond34.not = icmp eq i64 %indvars.iv.next31, %wide.trip.count33
  br i1 %exitcond34.not, label %._crit_edge25, label %.lr.ph24, !llvm.loop !72

._crit_edge25.loopexit.split.loop.exit:           ; preds = %.lr.ph24
  %16 = trunc nuw nsw i64 %indvars.iv30 to i32
  br label %._crit_edge25

._crit_edge25:                                    ; preds = %15, %._crit_edge25.loopexit.split.loop.exit, %._crit_edge.thread
  %.1.lcssa = phi i32 [ 0, %._crit_edge.thread ], [ %16, %._crit_edge25.loopexit.split.loop.exit ], [ %0, %15 ]
  ret i32 %.1.lcssa
}